target datalayout = "e-m:e-p270:32:32-p271:32:32-p272:64:64-i64:64-i128:128-f80:128-n8:16:32:64-S128"
target triple = "x86_64-pc-linux-gnu"

%class.WorkerTaskDispatcher = type { ptr, i32, i32, %class.Semaphore, %class.Semaphore }
%class.Semaphore = type { %class.PosixSemaphore }
%class.PosixSemaphore = type { %union.sem_t }
%union.sem_t = type { i64, [24 x i8] }

; Function Attrs: mustprogress nounwind uwtable
define linkonce_odr hidden void @_ZN9SemaphoreC2Ej(ptr noundef nonnull align 8 dereferenceable(32) %0, i32 noundef %1) unnamed_addr #1 comdat align 2 {
  %3 = alloca ptr, align 8
  %4 = alloca i32, align 4
  store ptr %0, ptr %3, align 8
  store i32 %1, ptr %4, align 4
  %5 = load ptr, ptr %3, align 8
  %6 = getelementptr inbounds %class.Semaphore, ptr %5, i32 0, i32 0
  %7 = load i32, ptr %4, align 4
  call void @_ZN14PosixSemaphoreC1Ej(ptr noundef nonnull align 8 dereferenceable(32) %6, i32 noundef %7)
  ret void
}

; Function Attrs: mustprogress nounwind uwtable
define hidden void @_ZN20WorkerTaskDispatcherC2Ev(ptr noundef nonnull align 8 dereferenceable(80) %0) unnamed_addr #1 align 2 {
  %2 = alloca ptr, align 8
  store ptr %0, ptr %2, align 8
  %3 = load ptr, ptr %2, align 8
  %4 = getelementptr inbounds %class.WorkerTaskDispatcher, ptr %3, i32 0, i32 0
  store ptr null, ptr %4, align 8
  %5 = getelementptr inbounds %class.WorkerTaskDispatcher, ptr %3, i32 0, i32 1
  store volatile i32 0, ptr %5, align 8
  %6 = getelementptr inbounds %class.WorkerTaskDispatcher, ptr %3, i32 0, i32 2
  store volatile i32 0, ptr %6, align 4
  %7 = getelementptr inbounds %class.WorkerTaskDispatcher, ptr %3, i32 0, i32 3
  call void @_ZN9SemaphoreC2Ej(ptr noundef nonnull align 8 dereferenceable(32) %7, i32 noundef 0)
  %8 = getelementptr inbounds %class.WorkerTaskDispatcher, ptr %3, i32 0, i32 4
  call void @_ZN9SemaphoreC2Ej(ptr noundef nonnull align 8 dereferenceable(32) %8, i32 noundef 0)
  ret void
}