; Function Attrs: mustprogress nounwind uwtable
define hidden void @_ZN20WorkerTaskDispatcherC2Ev(ptr noundef nonnull align 8 dereferenceable(80) %0) unnamed_addr #0 align 2 {
  store ptr null, ptr %0, align 8
  %2 = getelementptr inbounds i8, ptr %0, i64 8
  store volatile i32 0, ptr %2, align 8
  %3 = getelementptr inbounds i8, ptr %0, i64 12
  store volatile i32 0, ptr %3, align 4
  %4 = getelementptr inbounds i8, ptr %0, i64 16
  tail call void @_ZN14PosixSemaphoreC1Ej(ptr noundef nonnull align 8 dereferenceable(32) %4, i32 noundef 0) #10
  %5 = getelementptr inbounds i8, ptr %0, i64 48
  tail call void @_ZN14PosixSemaphoreC1Ej(ptr noundef nonnull align 8 dereferenceable(32) %5, i32 noundef 0) #10
  ret void
}